; Function Attrs: mustprogress uwtable
define dso_local void @_ZNSt3__13pmr28unsynchronized_pool_resource12__adhoc_pool15__do_deallocateEPNS0_15memory_resourceEPvmm(ptr noundef nonnull align 8 captures(none) dereferenceable(8) %0, ptr noundef %1, ptr noundef %2, i64 noundef %3, i64 noundef %4) local_unnamed_addr #4 align 2 {
  %6 = load ptr, ptr %0, align 8, !tbaa !4
  %7 = getelementptr inbounds nuw i8, ptr %6, i64 8
  %8 = load ptr, ptr %7, align 8, !tbaa !14
  %9 = icmp eq ptr %8, %2
  br i1 %9, label %.loopexit.sink.split, label %.preheader

.preheader:                                       ; preds = %5, %11
  %.0 = phi ptr [ %10, %11 ], [ %6, %5 ]
  %10 = load ptr, ptr %.0, align 8, !tbaa !10
  %.not = icmp eq ptr %10, null
  br i1 %.not, label %.loopexit, label %11

11:                                               ; preds = %.preheader
  %12 = getelementptr inbounds nuw i8, ptr %10, i64 8
  %13 = load ptr, ptr %12, align 8, !tbaa !14
  %14 = icmp eq ptr %13, %2
  br i1 %14, label %.loopexit.sink.split, label %.preheader, !llvm.loop !20

.loopexit.sink.split:                             ; preds = %11, %5
  %.lcssa25.sink37 = phi ptr [ %6, %5 ], [ %10, %11 ]
  %.0.lcssa26.sink = phi ptr [ %0, %5 ], [ %.0, %11 ]
  %15 = load ptr, ptr %.lcssa25.sink37, align 8, !tbaa !10
  %16 = ptrtoint ptr %.lcssa25.sink37 to i64
  %17 = ptrtoint ptr %2 to i64
  %18 = add i64 %16, 24
  %19 = sub i64 %18, %17
  %20 = getelementptr inbounds nuw i8, ptr %.lcssa25.sink37, i64 16
  %21 = load i64, ptr %20, align 8, !tbaa !15
  %22 = load ptr, ptr %1, align 8, !tbaa !16
  %23 = getelementptr inbounds nuw i8, ptr %22, i64 24
  %24 = load ptr, ptr %23, align 8
  tail call void %24(ptr noundef nonnull align 8 dereferenceable(8) %1, ptr noundef nonnull %2, i64 noundef %19, i64 noundef %21)
  store ptr %15, ptr %.0.lcssa26.sink, align 8, !tbaa !21
  br label %.loopexit

.loopexit:                                        ; preds = %.preheader, %.loopexit.sink.split
  ret void
}